; Function Attrs: mustprogress nounwind uwtable
define noundef zeroext i1 @_ZN14vsstatus_csr_t14unlogged_writeEm(ptr noundef nonnull align 8 dereferenceable(64) %0, i64 noundef %1) unnamed_addr #7 align 2 personality ptr @__gxx_personality_v0 {
  %3 = getelementptr inbounds nuw i8, ptr %0, i64 16
  %4 = load ptr, ptr %3, align 8, !tbaa !15
  %5 = getelementptr inbounds nuw i8, ptr %4, i64 3280
  %6 = load ptr, ptr %5, align 8, !tbaa !176
  %7 = load ptr, ptr %6, align 8, !tbaa !3
  %8 = getelementptr inbounds nuw i8, ptr %7, i64 8
  %9 = load ptr, ptr %8, align 8
  %10 = tail call noundef i64 %9(ptr noundef nonnull align 8 dereferenceable(37) %6) #30
  %11 = getelementptr inbounds nuw i8, ptr %0, i64 40
  %12 = load i64, ptr %11, align 8, !tbaa !190
  %13 = lshr i64 %10, 35
  %14 = or i64 %13, -16777217
  %15 = and i64 %14, %12
  %16 = getelementptr inbounds nuw i8, ptr %0, i64 56
  %17 = load i64, ptr %16, align 8, !tbaa !196
  %18 = xor i64 %15, -1
  %19 = and i64 %17, %18
  %20 = and i64 %15, %1
  %21 = or i64 %19, %20
  %22 = and i64 %21, 16777216
  %.not = icmp eq i64 %22, 0
  %23 = and i64 %21, -3
  %24 = select i1 %.not, i64 %21, i64 %23
  %25 = load ptr, ptr %3, align 8, !tbaa !15
  %26 = getelementptr inbounds nuw i8, ptr %25, i64 850
  %27 = load i8, ptr %26, align 2, !tbaa !93, !range !94, !noundef !95
  %28 = trunc nuw i8 %27 to i1
  br i1 %28, label %29, label %_ZN17base_status_csr_t15maybe_flush_tlbEm.exit

29:                                               ; preds = %2
  %30 = load ptr, ptr %0, align 8, !tbaa !3
  %31 = getelementptr inbounds nuw i8, ptr %30, i64 8
  %32 = load ptr, ptr %31, align 8
  %33 = tail call noundef i64 %32(ptr noundef nonnull align 8 dereferenceable(56) %0) #30
  %34 = xor i64 %33, %24
  %35 = getelementptr inbounds nuw i8, ptr %0, i64 37
  %36 = load i8, ptr %35, align 1, !tbaa !186, !range !94, !noundef !95
  %37 = trunc nuw i8 %36 to i1
  %38 = select i1 %37, i64 923648, i64 137216
  %39 = and i64 %38, %34
  %.not.i = icmp eq i64 %39, 0
  br i1 %.not.i, label %_ZN17base_status_csr_t15maybe_flush_tlbEm.exit, label %40

40:                                               ; preds = %29
  %41 = getelementptr inbounds nuw i8, ptr %0, i64 8
  %42 = load ptr, ptr %41, align 8, !tbaa !6
  %43 = getelementptr inbounds nuw i8, ptr %42, i64 176
  %44 = load ptr, ptr %43, align 8, !tbaa !171
  invoke void @_ZN5mmu_t9flush_tlbEv(ptr noundef nonnull align 8 dereferenceable(43168) %44)
          to label %_ZN17base_status_csr_t15maybe_flush_tlbEm.exit unwind label %45

45:                                               ; preds = %40
  %46 = landingpad { ptr, i32 }
          catch ptr null
  %47 = extractvalue { ptr, i32 } %46, 0
  tail call void @__clang_call_terminate(ptr %47) #32
  unreachable

_ZN17base_status_csr_t15maybe_flush_tlbEm.exit:   ; preds = %40, %29, %2
  %48 = load atomic i8, ptr @_ZGVZNK17base_status_csr_t9adjust_sdEmE6sd_bit acquire, align 8
  %49 = icmp eq i8 %48, 0
  br i1 %49, label %50, label %_ZNK17base_status_csr_t9adjust_sdEm.exit, !prof !192

50:                                               ; preds = %_ZN17base_status_csr_t15maybe_flush_tlbEm.exit
  %51 = tail call i32 @__cxa_guard_acquire(ptr nonnull @_ZGVZNK17base_status_csr_t9adjust_sdEmE6sd_bit) #30
  %.not.i9 = icmp eq i32 %51, 0
  br i1 %.not.i9, label %_ZNK17base_status_csr_t9adjust_sdEm.exit, label %52

52:                                               ; preds = %50
  %53 = getelementptr inbounds nuw i8, ptr %0, i64 8
  %54 = load ptr, ptr %53, align 8, !tbaa !6
  %55 = getelementptr inbounds nuw i8, ptr %54, i64 3964
  %56 = load i32, ptr %55, align 4, !tbaa !172
  %57 = icmp eq i32 %56, 64
  %58 = select i1 %57, i64 -9223372036854775808, i64 2147483648
  store i64 %58, ptr @_ZZNK17base_status_csr_t9adjust_sdEmE6sd_bit, align 8, !tbaa !96
  %59 = tail call ptr @llvm.invariant.start.p0(i64 8, ptr nonnull @_ZZNK17base_status_csr_t9adjust_sdEmE6sd_bit)
  tail call void @__cxa_guard_release(ptr nonnull @_ZGVZNK17base_status_csr_t9adjust_sdEmE6sd_bit) #30
  br label %_ZNK17base_status_csr_t9adjust_sdEm.exit

_ZNK17base_status_csr_t9adjust_sdEm.exit:         ; preds = %_ZN17base_status_csr_t15maybe_flush_tlbEm.exit, %50, %52
  %60 = and i64 %24, 24576
  %61 = icmp eq i64 %60, 24576
  %62 = and i64 %24, 1536
  %63 = icmp eq i64 %62, 1536
  %or.cond.i = or i1 %61, %63
  %64 = and i64 %24, 98304
  %65 = icmp eq i64 %64, 98304
  %or.cond8.i = or i1 %65, %or.cond.i
  %66 = load i64, ptr @_ZZNK17base_status_csr_t9adjust_sdEmE6sd_bit, align 8, !tbaa !96
  %67 = or i64 %66, %24
  %68 = xor i64 %66, -1
  %69 = and i64 %24, %68
  %.0.i = select i1 %or.cond8.i, i64 %67, i64 %69
  store i64 %.0.i, ptr %16, align 8, !tbaa !196
  ret i1 true
}